; ModuleID = '38/788.c'
source_filename = "38/788.c"
target datalayout = "e-m:e-p270:32:32-p271:32:32-p272:64:64-i64:64-f80:128-n8:16:32:64-S128"
target triple = "x86_64-pc-linux-gnu"

@.str = private unnamed_addr constant [3 x i8] c"%d\00", align 1
@.str.1 = private unnamed_addr constant [4 x i8] c"%lf\00", align 1
@.str.2 = private unnamed_addr constant [7 x i8] c"%.5lf\0A\00", align 1

; Function Attrs: noinline nounwind uwtable
define dso_local i32 @main(i32 %0, i8** %1) #0 {
  %3 = alloca i32, align 4
  %4 = alloca i32, align 4
  %5 = alloca i8**, align 8
  %6 = alloca i32, align 4
  %7 = alloca i32, align 4
  %8 = alloca [1000 x double], align 16
  %9 = alloca double, align 8
  %10 = alloca double, align 8
  %11 = alloca double, align 8
  %12 = alloca double, align 8
  %13 = alloca double, align 8
  %14 = alloca i32, align 4
  %15 = alloca i32, align 4
  %16 = alloca double, align 8
  store i32 0, i32* %3, align 4
  store i32 %0, i32* %4, align 4
  store i8** %1, i8*** %5, align 8
  %17 = call i32 (i8*, ...) @__isoc99_scanf(i8* getelementptr inbounds ([3 x i8], [3 x i8]* @.str, i64 0, i64 0), i32* %6)
  store i32 0, i32* %7, align 4
  br label %18

18:                                               ; preds = %80, %2
  %19 = load i32, i32* %7, align 4
  %20 = load i32, i32* %6, align 4
  %21 = icmp slt i32 %19, %20
  br i1 %21, label %22, label %83

22:                                               ; preds = %18
  store double 0.000000e+00, double* %9, align 8
  store double 0.000000e+00, double* %10, align 8
  store double 0.000000e+00, double* %11, align 8
  store double 0.000000e+00, double* %12, align 8
  store double 0.000000e+00, double* %13, align 8
  %23 = call i32 (i8*, ...) @__isoc99_scanf(i8* getelementptr inbounds ([3 x i8], [3 x i8]* @.str, i64 0, i64 0), i32* %14)
  store i32 0, i32* %15, align 4
  br label %24

24:                                               ; preds = %39, %22
  %25 = load i32, i32* %15, align 4
  %26 = load i32, i32* %14, align 4
  %27 = icmp slt i32 %25, %26
  br i1 %27, label %28, label %42

28:                                               ; preds = %24
  %29 = load i32, i32* %15, align 4
  %30 = sext i32 %29 to i64
  %31 = getelementptr inbounds [1000 x double], [1000 x double]* %8, i64 0, i64 %30
  %32 = call i32 (i8*, ...) @__isoc99_scanf(i8* getelementptr inbounds ([4 x i8], [4 x i8]* @.str.1, i64 0, i64 0), double* %31)
  %33 = load i32, i32* %15, align 4
  %34 = sext i32 %33 to i64
  %35 = getelementptr inbounds [1000 x double], [1000 x double]* %8, i64 0, i64 %34
  %36 = load double, double* %35, align 8
  %37 = load double, double* %11, align 8
  %38 = fadd double %37, %36
  store double %38, double* %11, align 8
  br label %39

39:                                               ; preds = %28
  %40 = load i32, i32* %15, align 4
  %41 = add nsw i32 %40, 1
  store i32 %41, i32* %15, align 4
  br label %24

42:                                               ; preds = %24
  %43 = load double, double* %11, align 8
  %44 = load i32, i32* %14, align 4
  %45 = sitofp i32 %44 to double
  %46 = fdiv double %43, %45
  store double %46, double* %9, align 8
  store i32 0, i32* %15, align 4
  br label %47

47:                                               ; preds = %68, %42
  %48 = load i32, i32* %15, align 4
  %49 = load i32, i32* %14, align 4
  %50 = icmp slt i32 %48, %49
  br i1 %50, label %51, label %71

51:                                               ; preds = %47
  %52 = load i32, i32* %15, align 4
  %53 = sext i32 %52 to i64
  %54 = getelementptr inbounds [1000 x double], [1000 x double]* %8, i64 0, i64 %53
  %55 = load double, double* %54, align 8
  %56 = load double, double* %9, align 8
  %57 = fsub double %55, %56
  %58 = load i32, i32* %15, align 4
  %59 = sext i32 %58 to i64
  %60 = getelementptr inbounds [1000 x double], [1000 x double]* %8, i64 0, i64 %59
  %61 = load double, double* %60, align 8
  %62 = load double, double* %9, align 8
  %63 = fsub double %61, %62
  %64 = fmul double %57, %63
  store double %64, double* %16, align 8
  %65 = load double, double* %16, align 8
  %66 = load double, double* %12, align 8
  %67 = fadd double %66, %65
  store double %67, double* %12, align 8
  br label %68

68:                                               ; preds = %51
  %69 = load i32, i32* %15, align 4
  %70 = add nsw i32 %69, 1
  store i32 %70, i32* %15, align 4
  br label %47

71:                                               ; preds = %47
  %72 = load double, double* %12, align 8
  %73 = load i32, i32* %14, align 4
  %74 = sitofp i32 %73 to double
  %75 = fdiv double %72, %74
  store double %75, double* %10, align 8
  %76 = load double, double* %10, align 8
  %77 = call double @sqrt(double %76) #3
  store double %77, double* %13, align 8
  %78 = load double, double* %13, align 8
  %79 = call i32 (i8*, ...) @printf(i8* getelementptr inbounds ([7 x i8], [7 x i8]* @.str.2, i64 0, i64 0), double %78)
  br label %80

80:                                               ; preds = %71
  %81 = load i32, i32* %7, align 4
  %82 = add nsw i32 %81, 1
  store i32 %82, i32* %7, align 4
  br label %18

83:                                               ; preds = %18
  ret i32 0
}

declare dso_local i32 @__isoc99_scanf(i8*, ...) #1

; Function Attrs: nounwind
declare dso_local double @sqrt(double) #2

declare dso_local i32 @printf(i8*, ...) #1


!llvm.module.flags = !{!0}
!llvm.ident = !{!1}

!0 = !{i32 1, !"wchar_size", i32 4}
!1 = !{!"clang version 10.0.0-4ubuntu1 "}
